target datalayout = "e-m:e-p270:32:32-p271:32:32-p272:64:64-i64:64-i128:128-f80:128-n8:16:32:64-S128"
target triple = "x86_64-pc-linux-gnu"

%class.btCollisionPairCallback = type { %struct.btOverlapCallback, ptr, ptr }
%struct.btOverlapCallback = type { ptr }
%class.CProfileSample = type { i8 }

@.str = private unnamed_addr constant [27 x i8] c"processAllOverlappingPairs\00", align 1
@_ZTV17btOverlapCallback = linkonce_odr dso_local unnamed_addr constant { [5 x ptr] } { [5 x ptr] [ptr null, ptr @_ZTI17btOverlapCallback, ptr @_ZN17btOverlapCallbackD2Ev, ptr @_ZN17btOverlapCallbackD0Ev, ptr @__cxa_pure_virtual] }, comdat, align 8

; Function Attrs: inlinehint mustprogress nounwind uwtable
define linkonce_odr dso_local void @_ZN17btOverlapCallbackC2Ev(ptr noundef nonnull align 8 dereferenceable(8) %0) unnamed_addr #3 comdat align 2 {
  %2 = alloca ptr, align 8
  store ptr %0, ptr %2, align 8, !tbaa !127
  %3 = load ptr, ptr %2, align 8
  store ptr getelementptr inbounds inrange(-16, 24) ({ [5 x ptr] }, ptr @_ZTV17btOverlapCallback, i32 0, i32 0, i32 2), ptr %3, align 8, !tbaa !16
  ret void
}

; Function Attrs: mustprogress nounwind uwtable
define linkonce_odr dso_local void @_ZN17btOverlapCallbackD2Ev(ptr noundef nonnull align 8 dereferenceable(8) %0) unnamed_addr #1 comdat align 2 {
  %2 = alloca ptr, align 8
  store ptr %0, ptr %2, align 8, !tbaa !127
  ret void
}

; Function Attrs: mustprogress nounwind uwtable
define linkonce_odr dso_local void @_ZN23btCollisionPairCallbackC2ERK16btDispatcherInfoP21btCollisionDispatcher(ptr noundef nonnull align 8 dereferenceable(24) %0, ptr noundef nonnull align 8 dereferenceable(49) %1, ptr noundef %2) unnamed_addr #1 comdat align 2 {
  %4 = alloca ptr, align 8
  %5 = alloca ptr, align 8
  %6 = alloca ptr, align 8
  store ptr %0, ptr %4, align 8, !tbaa !122
  store ptr %1, ptr %5, align 8, !tbaa !42
  store ptr %2, ptr %6, align 8, !tbaa !12
  %7 = load ptr, ptr %4, align 8
  call void @_ZN17btOverlapCallbackC2Ev(ptr noundef nonnull align 8 dereferenceable(8) %7) #11
  store ptr getelementptr inbounds inrange(-16, 24) ({ [5 x ptr] }, ptr @_ZTV23btCollisionPairCallback, i32 0, i32 0, i32 2), ptr %7, align 8, !tbaa !16
  %8 = getelementptr inbounds nuw %class.btCollisionPairCallback, ptr %7, i32 0, i32 1
  %9 = load ptr, ptr %5, align 8, !tbaa !42
  store ptr %9, ptr %8, align 8, !tbaa !42
  %10 = getelementptr inbounds nuw %class.btCollisionPairCallback, ptr %7, i32 0, i32 2
  %11 = load ptr, ptr %6, align 8, !tbaa !12
  store ptr %11, ptr %10, align 8, !tbaa !124
  ret void
}

; Function Attrs: mustprogress uwtable
define dso_local void @_ZN21btCollisionDispatcher25dispatchAllCollisionPairsEP22btOverlappingPairCacheRK16btDispatcherInfoP12btDispatcher(ptr noundef nonnull align 8 dereferenceable(20816) %0, ptr noundef %1, ptr noundef nonnull align 8 dereferenceable(49) %2, ptr noundef %3) unnamed_addr #2 align 2 personality ptr @__gxx_personality_v0 {
  %5 = alloca ptr, align 8
  %6 = alloca ptr, align 8
  %7 = alloca ptr, align 8
  %8 = alloca ptr, align 8
  %9 = alloca %class.btCollisionPairCallback, align 8
  %10 = alloca %class.CProfileSample, align 1
  %11 = alloca ptr, align 8
  %12 = alloca i32, align 4
  store ptr %0, ptr %5, align 8, !tbaa !12
  store ptr %1, ptr %6, align 8, !tbaa !120
  store ptr %2, ptr %7, align 8, !tbaa !42
  store ptr %3, ptr %8, align 8, !tbaa !34
  %13 = load ptr, ptr %5, align 8
  call void @llvm.lifetime.start.p0(i64 24, ptr %9) #11
  %14 = load ptr, ptr %7, align 8, !tbaa !42
  call void @_ZN23btCollisionPairCallbackC2ERK16btDispatcherInfoP21btCollisionDispatcher(ptr noundef nonnull align 8 dereferenceable(24) %9, ptr noundef nonnull align 8 dereferenceable(49) %14, ptr noundef %13)
  call void @llvm.lifetime.start.p0(i64 1, ptr %10) #11
  invoke void @_ZN14CProfileSampleC1EPKc(ptr noundef nonnull align 1 dereferenceable(1) %10, ptr noundef @.str)
          to label %15 unwind label %23

15:                                               ; preds = %4
  %16 = load ptr, ptr %6, align 8, !tbaa !120
  %17 = load ptr, ptr %8, align 8, !tbaa !34
  %18 = load ptr, ptr %7, align 8, !tbaa !42
  %19 = load ptr, ptr %16, align 8, !tbaa !16
  %20 = getelementptr inbounds ptr, ptr %19, i64 15
  %21 = load ptr, ptr %20, align 8
  invoke void %21(ptr noundef nonnull align 8 dereferenceable(8) %16, ptr noundef %9, ptr noundef %17, ptr noundef nonnull align 8 dereferenceable(49) %18)
          to label %22 unwind label %27

22:                                               ; preds = %15
  call void @_ZN14CProfileSampleD1Ev(ptr noundef nonnull align 1 dereferenceable(1) %10) #11
  call void @llvm.lifetime.end.p0(i64 1, ptr %10) #11
  call void @_ZN17btOverlapCallbackD2Ev(ptr noundef nonnull align 8 dereferenceable(24) %9) #11
  call void @llvm.lifetime.end.p0(i64 24, ptr %9) #11
  ret void

23:                                               ; preds = %4
  %24 = landingpad { ptr, i32 }
          cleanup
  %25 = extractvalue { ptr, i32 } %24, 0
  store ptr %25, ptr %11, align 8
  %26 = extractvalue { ptr, i32 } %24, 1
  store i32 %26, ptr %12, align 4
  br label %31

27:                                               ; preds = %15
  %28 = landingpad { ptr, i32 }
          cleanup
  %29 = extractvalue { ptr, i32 } %28, 0
  store ptr %29, ptr %11, align 8
  %30 = extractvalue { ptr, i32 } %28, 1
  store i32 %30, ptr %12, align 4
  call void @_ZN14CProfileSampleD1Ev(ptr noundef nonnull align 1 dereferenceable(1) %10) #11
  br label %31

31:                                               ; preds = %27, %23
  call void @llvm.lifetime.end.p0(i64 1, ptr %10) #11
  call void @_ZN17btOverlapCallbackD2Ev(ptr noundef nonnull align 8 dereferenceable(24) %9) #11
  call void @llvm.lifetime.end.p0(i64 24, ptr %9) #11
  br label %32

32:                                               ; preds = %31
  %33 = load ptr, ptr %11, align 8
  %34 = load i32, ptr %12, align 4
  %35 = insertvalue { ptr, i32 } poison, ptr %33, 0
  %36 = insertvalue { ptr, i32 } %35, i32 %34, 1
  resume { ptr, i32 } %36
}