; Function Attrs: mustprogress uwtable
define dso_local void @_ZN21btCollisionDispatcher25dispatchAllCollisionPairsEP22btOverlappingPairCacheRK16btDispatcherInfoP12btDispatcher(ptr noundef nonnull align 8 dereferenceable(20816) %0, ptr noundef %1, ptr noundef nonnull align 8 dereferenceable(49) %2, ptr noundef %3) unnamed_addr #0 align 2 personality ptr @__gxx_personality_v0 {
  %5 = alloca %class.btCollisionPairCallback, align 8
  %6 = alloca %class.CProfileSample, align 1
  call void @llvm.lifetime.start.p0(i64 24, ptr nonnull %5) #11
  store ptr getelementptr inbounds nuw inrange(-16, 24) (i8, ptr @_ZTV23btCollisionPairCallback, i64 16), ptr %5, align 8, !tbaa !4
  %7 = getelementptr inbounds nuw i8, ptr %5, i64 8
  store ptr %2, ptr %7, align 8, !tbaa !102
  %8 = getelementptr inbounds nuw i8, ptr %5, i64 16
  store ptr %0, ptr %8, align 8, !tbaa !104
  call void @llvm.lifetime.start.p0(i64 1, ptr nonnull %6) #11
  call void @_ZN14CProfileSampleC1EPKc(ptr noundef nonnull align 1 dereferenceable(1) %6, ptr noundef nonnull @.str)
  %9 = load ptr, ptr %1, align 8, !tbaa !4
  %10 = getelementptr inbounds nuw i8, ptr %9, i64 120
  %11 = load ptr, ptr %10, align 8
  invoke void %11(ptr noundef nonnull align 8 dereferenceable(8) %1, ptr noundef nonnull %5, ptr noundef %3, ptr noundef nonnull align 8 dereferenceable(49) %2)
          to label %12 unwind label %13

12:                                               ; preds = %4
  call void @_ZN14CProfileSampleD1Ev(ptr noundef nonnull align 1 dereferenceable(1) %6) #11
  call void @llvm.lifetime.end.p0(i64 1, ptr nonnull %6) #11
  call void @llvm.lifetime.end.p0(i64 24, ptr nonnull %5) #11
  ret void

13:                                               ; preds = %4
  %14 = landingpad { ptr, i32 }
          cleanup
  call void @_ZN14CProfileSampleD1Ev(ptr noundef nonnull align 1 dereferenceable(1) %6) #11
  call void @llvm.lifetime.end.p0(i64 1, ptr nonnull %6) #11
  call void @llvm.lifetime.end.p0(i64 24, ptr nonnull %5) #11
  resume { ptr, i32 } %14
}